target datalayout = "e-m:e-p270:32:32-p271:32:32-p272:64:64-i64:64-i128:128-f80:128-n8:16:32:64-S128"
target triple = "x86_64-pc-linux-gnu"

@.str = private unnamed_addr constant [97 x i8] c"generated/home/dtcxzyw/WorkSpace/Projects/compilers/llvm-opt-benchmark/bench/hdf5/hdf5/src/H5Z.c\00", align 1
@H5E_PLINE_g = external global i64, align 8
@__func__.H5Z_set_local = private unnamed_addr constant [14 x i8] c"H5Z_set_local\00", align 1
@H5E_SETLOCAL_g = external global i64, align 8
@.str.22 = private unnamed_addr constant [32 x i8] c"local filter parameters not set\00", align 1

; Function Attrs: nounwind uwtable
define i32 @H5Z_set_local(i64 noundef %0, i64 noundef %1) #0 {
  %3 = alloca i64, align 8
  %4 = alloca i64, align 8
  %5 = alloca i32, align 4
  %6 = alloca i8, align 1
  store i64 %0, ptr %3, align 8
  store i64 %1, ptr %4, align 8
  store i32 0, ptr %5, align 4
  store i8 0, ptr %6, align 1
  %7 = load i64, ptr %3, align 8
  %8 = load i64, ptr %4, align 8
  %9 = call i32 @H5Z__prepare_prelude_callback_dcpl(i64 noundef %7, i64 noundef %8, i32 noundef 1)
  %10 = icmp slt i32 %9, 0
  br i1 %10, label %11, label %26

11:                                               ; preds = %2
  br label %12

12:                                               ; preds = %11
  br label %13

13:                                               ; preds = %12
  br label %14

14:                                               ; preds = %13
  %15 = load i64, ptr @H5E_PLINE_g, align 8
  %16 = load i64, ptr @H5E_SETLOCAL_g, align 8
  %17 = call i32 (ptr, ptr, i32, i64, i64, ptr, ...) @H5E_printf_stack(ptr noundef @.str, ptr noundef @__func__.H5Z_set_local, i32 noundef 972, i64 noundef %15, i64 noundef %16, ptr noundef @.str.22)
  br label %18

18:                                               ; preds = %14
  store i8 1, ptr %6, align 1
  %19 = load i8, ptr %6, align 1
  %20 = trunc i8 %19 to i1
  %21 = zext i1 %20 to i8
  store i8 %21, ptr %6, align 1
  br label %22

22:                                               ; preds = %18
  br label %23

23:                                               ; preds = %22
  store i32 -1, ptr %5, align 4
  br label %27

24:                                               ; No predecessors!
  br label %25

25:                                               ; preds = %24
  br label %26

26:                                               ; preds = %25, %2
  br label %27

27:                                               ; preds = %26, %23
  %28 = load i32, ptr %5, align 4
  ret i32 %28
}